target datalayout = "e-m:e-p270:32:32-p271:32:32-p272:64:64-i64:64-i128:128-f80:128-n8:16:32:64-S128"
target triple = "x86_64-pc-linux-gnu"

; Function Attrs: nounwind sspstrong uwtable
define internal i64 @ossl_get_errors(i64 noundef %0) #0 {
  %2 = alloca i64, align 8
  %3 = alloca i64, align 8
  %4 = alloca i64, align 8
  store i64 %0, ptr %2, align 8, !tbaa !6
  call void @llvm.lifetime.start.p0(i64 8, ptr %3) #22
  call void @llvm.lifetime.start.p0(i64 8, ptr %4) #22
  %5 = call i64 @rb_ary_new()
  store i64 %5, ptr %3, align 8, !tbaa !6
  br label %6

6:                                                ; preds = %9, %1
  %7 = call i64 @ERR_get_error()
  store i64 %7, ptr %4, align 8, !tbaa !6
  %8 = icmp ne i64 %7, 0
  br i1 %8, label %9, label %15

9:                                                ; preds = %6
  %10 = load i64, ptr %3, align 8, !tbaa !6
  %11 = load i64, ptr %4, align 8, !tbaa !6
  %12 = call ptr @ERR_error_string(i64 noundef %11, ptr noundef null)
  %13 = call i64 @rb_str_new_cstr(ptr noundef %12)
  %14 = call i64 @rb_ary_push(i64 noundef %10, i64 noundef %13)
  br label %6, !llvm.loop !43

15:                                               ; preds = %6
  %16 = load i64, ptr %3, align 8, !tbaa !6
  call void @llvm.lifetime.end.p0(i64 8, ptr %4) #22
  call void @llvm.lifetime.end.p0(i64 8, ptr %3) #22
  ret i64 %16
}