; Function Attrs: nounwind sspstrong uwtable
define internal i64 @ossl_get_errors(i64 %0) #0 {
  %2 = tail call i64 @rb_ary_new() #15
  %3 = tail call i64 @ERR_get_error() #15
  %.not3 = icmp eq i64 %3, 0
  br i1 %.not3, label %._crit_edge, label %.lr.ph

.lr.ph:                                           ; preds = %1, %.lr.ph
  %4 = phi i64 [ %8, %.lr.ph ], [ %3, %1 ]
  %5 = tail call ptr @ERR_error_string(i64 noundef %4, ptr noundef null) #15
  %6 = tail call i64 @rb_str_new_cstr(ptr noundef %5) #15
  %7 = tail call i64 @rb_ary_push(i64 noundef %2, i64 noundef %6) #15
  %8 = tail call i64 @ERR_get_error() #15
  %.not = icmp eq i64 %8, 0
  br i1 %.not, label %._crit_edge, label %.lr.ph, !llvm.loop !41

._crit_edge:                                      ; preds = %.lr.ph, %1
  ret i64 %2
}